; ModuleID = '12/1601.c'
source_filename = "12/1601.c"
target datalayout = "e-m:e-p270:32:32-p271:32:32-p272:64:64-i64:64-f80:128-n8:16:32:64-S128"
target triple = "x86_64-pc-linux-gnu"

@.str = private unnamed_addr constant [3 x i8] c"%d\00", align 1
@.str.1 = private unnamed_addr constant [4 x i8] c"%d\0A\00", align 1

; Function Attrs: noinline nounwind uwtable
define dso_local i32 @main() #0 {
  %1 = alloca i32, align 4
  %2 = alloca [100 x [16 x i32]], align 16
  %3 = alloca i32, align 4
  %4 = alloca i32, align 4
  %5 = alloca i32, align 4
  %6 = alloca i32, align 4
  %7 = alloca i32, align 4
  store i32 0, i32* %1, align 4
  store i32 0, i32* %3, align 4
  br label %8

8:                                                ; preds = %87, %0
  %9 = load i32, i32* %3, align 4
  %10 = icmp slt i32 %9, 100
  br i1 %10, label %11, label %90

11:                                               ; preds = %8
  store i32 0, i32* %4, align 4
  br label %12

12:                                               ; preds = %33, %11
  %13 = load i32, i32* %4, align 4
  %14 = icmp slt i32 %13, 16
  br i1 %14, label %15, label %36

15:                                               ; preds = %12
  %16 = load i32, i32* %3, align 4
  %17 = sext i32 %16 to i64
  %18 = getelementptr inbounds [100 x [16 x i32]], [100 x [16 x i32]]* %2, i64 0, i64 %17
  %19 = load i32, i32* %4, align 4
  %20 = sext i32 %19 to i64
  %21 = getelementptr inbounds [16 x i32], [16 x i32]* %18, i64 0, i64 %20
  %22 = call i32 (i8*, ...) @__isoc99_scanf(i8* getelementptr inbounds ([3 x i8], [3 x i8]* @.str, i64 0, i64 0), i32* %21)
  %23 = load i32, i32* %3, align 4
  %24 = sext i32 %23 to i64
  %25 = getelementptr inbounds [100 x [16 x i32]], [100 x [16 x i32]]* %2, i64 0, i64 %24
  %26 = load i32, i32* %4, align 4
  %27 = sext i32 %26 to i64
  %28 = getelementptr inbounds [16 x i32], [16 x i32]* %25, i64 0, i64 %27
  %29 = load i32, i32* %28, align 4
  %30 = icmp sle i32 %29, 0
  br i1 %30, label %31, label %32

31:                                               ; preds = %15
  br label %36

32:                                               ; preds = %15
  br label %33

33:                                               ; preds = %32
  %34 = load i32, i32* %4, align 4
  %35 = add nsw i32 %34, 1
  store i32 %35, i32* %4, align 4
  br label %12

36:                                               ; preds = %31, %12
  store i32 0, i32* %5, align 4
  store i32 0, i32* %6, align 4
  br label %37

37:                                               ; preds = %71, %36
  %38 = load i32, i32* %6, align 4
  %39 = load i32, i32* %4, align 4
  %40 = icmp slt i32 %38, %39
  br i1 %40, label %41, label %74

41:                                               ; preds = %37
  store i32 0, i32* %7, align 4
  br label %42

42:                                               ; preds = %67, %41
  %43 = load i32, i32* %7, align 4
  %44 = load i32, i32* %4, align 4
  %45 = icmp slt i32 %43, %44
  br i1 %45, label %46, label %70

46:                                               ; preds = %42
  %47 = load i32, i32* %3, align 4
  %48 = sext i32 %47 to i64
  %49 = getelementptr inbounds [100 x [16 x i32]], [100 x [16 x i32]]* %2, i64 0, i64 %48
  %50 = load i32, i32* %7, align 4
  %51 = sext i32 %50 to i64
  %52 = getelementptr inbounds [16 x i32], [16 x i32]* %49, i64 0, i64 %51
  %53 = load i32, i32* %52, align 4
  %54 = load i32, i32* %3, align 4
  %55 = sext i32 %54 to i64
  %56 = getelementptr inbounds [100 x [16 x i32]], [100 x [16 x i32]]* %2, i64 0, i64 %55
  %57 = load i32, i32* %6, align 4
  %58 = sext i32 %57 to i64
  %59 = getelementptr inbounds [16 x i32], [16 x i32]* %56, i64 0, i64 %58
  %60 = load i32, i32* %59, align 4
  %61 = mul nsw i32 2, %60
  %62 = icmp eq i32 %53, %61
  br i1 %62, label %63, label %66

63:                                               ; preds = %46
  %64 = load i32, i32* %5, align 4
  %65 = add nsw i32 %64, 1
  store i32 %65, i32* %5, align 4
  br label %66

66:                                               ; preds = %63, %46
  br label %67

67:                                               ; preds = %66
  %68 = load i32, i32* %7, align 4
  %69 = add nsw i32 %68, 1
  store i32 %69, i32* %7, align 4
  br label %42

70:                                               ; preds = %42
  br label %71

71:                                               ; preds = %70
  %72 = load i32, i32* %6, align 4
  %73 = add nsw i32 %72, 1
  store i32 %73, i32* %6, align 4
  br label %37

74:                                               ; preds = %37
  %75 = load i32, i32* %3, align 4
  %76 = sext i32 %75 to i64
  %77 = getelementptr inbounds [100 x [16 x i32]], [100 x [16 x i32]]* %2, i64 0, i64 %76
  %78 = load i32, i32* %4, align 4
  %79 = sext i32 %78 to i64
  %80 = getelementptr inbounds [16 x i32], [16 x i32]* %77, i64 0, i64 %79
  %81 = load i32, i32* %80, align 4
  %82 = icmp eq i32 %81, -1
  br i1 %82, label %83, label %84

83:                                               ; preds = %74
  br label %90

84:                                               ; preds = %74
  %85 = load i32, i32* %5, align 4
  %86 = call i32 (i8*, ...) @printf(i8* getelementptr inbounds ([4 x i8], [4 x i8]* @.str.1, i64 0, i64 0), i32 %85)
  br label %87

87:                                               ; preds = %84
  %88 = load i32, i32* %3, align 4
  %89 = add nsw i32 %88, 1
  store i32 %89, i32* %3, align 4
  br label %8

90:                                               ; preds = %83, %8
  ret i32 0
}

declare dso_local i32 @__isoc99_scanf(i8*, ...) #1

declare dso_local i32 @printf(i8*, ...) #1


!llvm.module.flags = !{!0}
!llvm.ident = !{!1}

!0 = !{i32 1, !"wchar_size", i32 4}
!1 = !{!"clang version 10.0.0-4ubuntu1 "}
